target datalayout = "e-m:e-p270:32:32-p271:32:32-p272:64:64-i64:64-i128:128-f80:128-n8:16:32:64-S128"
target triple = "x86_64-pc-linux-gnu"

%struct.ident_t = type { i32, i32, i32, i32, ptr }

@1 = private unnamed_addr constant %struct.ident_t { i32 0, i32 514, i32 0, i32 22, ptr @0 }, align 8
@_ZTISt9exception = external constant ptr

; Function Attrs: mustprogress nounwind uwtable
define internal void @_ZN3gmxL14scalePositionsILNS_24NumPositionScalingValuesE0EEEvifPA3_f(i32 noundef %0, float noundef %1, ptr noalias noundef %2) #1 {
  %4 = alloca i32, align 4
  %5 = alloca float, align 4
  %6 = alloca ptr, align 8
  store i32 %0, ptr %4, align 4
  store float %1, ptr %5, align 4
  store ptr %2, ptr %6, align 8
  ret void
}

; Function Attrs: norecurse nounwind uwtable
define internal void @_ZN3gmx10PropagatorILNS_16IntegrationStageE5EE3runILNS_24NumVelocityScalingValuesE1ELNS_31ParrinelloRahmanVelocityScalingE2ELS4_1ELNS_24NumPositionScalingValuesE0EEEvv.omp_outlined(ptr noalias noundef %0, ptr noalias noundef %1, ptr noundef nonnull align 4 dereferenceable(4) %2, ptr noundef nonnull align 4 dereferenceable(4) %3, ptr noundef %4, i64 noundef %5, ptr noundef nonnull align 8 dereferenceable(8) %6) #9 personality ptr @__gxx_personality_v0 {
  %8 = alloca ptr, align 8
  %9 = alloca ptr, align 8
  %10 = alloca ptr, align 8
  %11 = alloca ptr, align 8
  %12 = alloca ptr, align 8
  %13 = alloca i64, align 8
  %14 = alloca ptr, align 8
  %15 = alloca i32, align 4
  %16 = alloca i32, align 4
  %17 = alloca i32, align 4
  %18 = alloca i32, align 4
  %19 = alloca i32, align 4
  %20 = alloca i32, align 4
  %21 = alloca i32, align 4
  %22 = alloca i32, align 4
  %23 = alloca i32, align 4
  %24 = alloca i32, align 4
  %25 = alloca i32, align 4
  %26 = alloca ptr, align 8
  %27 = alloca i32, align 4
  %28 = alloca i32, align 4
  %29 = alloca ptr, align 8
  store ptr %0, ptr %8, align 8
  store ptr %1, ptr %9, align 8
  store ptr %2, ptr %10, align 8
  store ptr %3, ptr %11, align 8
  store ptr %4, ptr %12, align 8
  store i64 %5, ptr %13, align 8
  store ptr %6, ptr %14, align 8
  %30 = load ptr, ptr %10, align 8
  %31 = load ptr, ptr %11, align 8
  %32 = load ptr, ptr %14, align 8
  %33 = load i32, ptr %30, align 4
  store i32 %33, ptr %16, align 4
  %34 = load i32, ptr %16, align 4
  %35 = sub nsw i32 %34, 0
  %36 = sdiv i32 %35, 1
  %37 = sub nsw i32 %36, 1
  store i32 %37, ptr %17, align 4
  store i32 0, ptr %18, align 4
  %38 = load i32, ptr %16, align 4
  %39 = icmp slt i32 0, %38
  br i1 %39, label %40, label %101

40:                                               ; preds = %7
  store i32 0, ptr %19, align 4
  %41 = load i32, ptr %17, align 4
  store i32 %41, ptr %20, align 4
  store i32 1, ptr %21, align 4
  store i32 0, ptr %22, align 4
  %42 = load ptr, ptr %8, align 8
  %43 = load i32, ptr %42, align 4
  call void @__kmpc_for_static_init_4(ptr @1, i32 %43, i32 34, ptr %22, ptr %19, ptr %20, ptr %21, i32 1, i32 1)
  %44 = load i32, ptr %20, align 4
  %45 = load i32, ptr %17, align 4
  %46 = icmp sgt i32 %44, %45
  br i1 %46, label %47, label %49

47:                                               ; preds = %40
  %48 = load i32, ptr %17, align 4
  br label %51

49:                                               ; preds = %40
  %50 = load i32, ptr %20, align 4
  br label %51

51:                                               ; preds = %49, %47
  %52 = phi i32 [ %48, %47 ], [ %50, %49 ]
  store i32 %52, ptr %20, align 4
  %53 = load i32, ptr %19, align 4
  store i32 %53, ptr %15, align 4
  br label %54

54:                                               ; preds = %94, %51
  %55 = load i32, ptr %15, align 4
  %56 = load i32, ptr %20, align 4
  %57 = icmp sle i32 %55, %56
  br i1 %57, label %58, label %97

58:                                               ; preds = %54
  %59 = load i32, ptr %15, align 4
  %60 = mul nsw i32 %59, 1
  %61 = add nsw i32 0, %60
  store i32 %61, ptr %23, align 4
  %62 = load i32, ptr %30, align 4
  %63 = load i32, ptr %23, align 4
  %64 = load i32, ptr %31, align 4
  invoke void @_Z18getThreadAtomRangeiiiPiS_(i32 noundef %62, i32 noundef %63, i32 noundef %64, ptr noundef %24, ptr noundef %25)
          to label %65 unwind label %78

65:                                               ; preds = %58
  %66 = load i32, ptr %24, align 4
  store i32 %66, ptr %28, align 4
  br label %67

67:                                               ; preds = %75, %65
  %68 = load i32, ptr %28, align 4
  %69 = load i32, ptr %25, align 4
  %70 = icmp slt i32 %68, %69
  br i1 %70, label %71, label %91

71:                                               ; preds = %67
  %72 = load i32, ptr %28, align 4
  %73 = load ptr, ptr %32, align 8
  invoke void @_ZN3gmxL14scalePositionsILNS_24NumPositionScalingValuesE0EEEvifPA3_f(i32 noundef %72, float noundef 1.000000e+00, ptr noundef %73)
          to label %74 unwind label %78

74:                                               ; preds = %71
  br label %75

75:                                               ; preds = %74
  %76 = load i32, ptr %28, align 4
  %77 = add nsw i32 %76, 1
  store i32 %77, ptr %28, align 4
  br label %67, !llvm.loop !83

78:                                               ; preds = %71, %58
  %79 = landingpad { ptr, i32 }
          catch ptr @_ZTISt9exception
          catch ptr null
  %80 = extractvalue { ptr, i32 } %79, 0
  store ptr %80, ptr %26, align 8
  %81 = extractvalue { ptr, i32 } %79, 1
  store i32 %81, ptr %27, align 4
  br label %82

82:                                               ; preds = %78
  %83 = load i32, ptr %27, align 4
  %84 = call i32 @llvm.eh.typeid.for(ptr @_ZTISt9exception) #10
  %85 = icmp eq i32 %83, %84
  br i1 %85, label %86, label %105

86:                                               ; preds = %82
  %87 = load ptr, ptr %26, align 8
  %88 = call ptr @__cxa_begin_catch(ptr %87) #10
  store ptr %88, ptr %29, align 8
  %89 = load ptr, ptr %29, align 8
  invoke void @_ZN3gmx28processExceptionAsFatalErrorERKSt9exception(ptr noundef nonnull align 8 dereferenceable(8) %89) #20
          to label %90 unwind label %102

90:                                               ; preds = %86
  unreachable

91:                                               ; preds = %67
  br label %92

92:                                               ; preds = %91
  br label %93

93:                                               ; preds = %92
  br label %94

94:                                               ; preds = %93
  %95 = load i32, ptr %15, align 4
  %96 = add nsw i32 %95, 1
  store i32 %96, ptr %15, align 4
  br label %54

97:                                               ; preds = %54
  br label %98

98:                                               ; preds = %97
  %99 = load ptr, ptr %8, align 8
  %100 = load i32, ptr %99, align 4
  call void @__kmpc_for_static_fini(ptr @1, i32 %100)
  br label %101

101:                                              ; preds = %98, %7
  ret void

102:                                              ; preds = %86
  %103 = landingpad { ptr, i32 }
          catch ptr null
  %104 = extractvalue { ptr, i32 } %103, 0
  call void @__clang_call_terminate(ptr %104) #19
  unreachable

105:                                              ; preds = %82
  %106 = load ptr, ptr %26, align 8
  call void @__clang_call_terminate(ptr %106) #19
  unreachable
}